(lp0
Vhttp://acc6.its.brooklyn.cuny.edu/~gurwitz/core5/binquiz.html
p1
aVhttp://phonertc.io/
p2
aVhttp://www.embeddedrelated.com/showarticle/649.php
p3
aVhttp://kukuruku.co/hub/algorithms/a-point-localization-in-a-polygon
p4
aVhttps://github.com/thebradbain/snapception
p5
aVhttp://michaelochurch.wordpress.com/2014/10/13/it-might-be-time-for-software-engineers-especially-in-silicon-valley-to-unionize/
p6
aVhttp://nathanfriend.com/inspirograph/
p7
aVhttp://www.webdesigndev.com/roundups/30-top-programmers-to-follow-on-twitter
p8
aVhttp://www.nicolasbize.com/blog/the-best-ide-in-the-world/
p9
aVhttp://www.pubnub.com/community/discussion/77/filter-owner-messages-on-pubnub-data-streams
p10
aVhttp://dotnetdevelopernetwork.com/perfect-linkedin-programmer-profile/
p11
aVhttp://compgroups.net/comp.lang.forth/nano-irc-client-in-forth/1259125
p12
aVhttps://spring-security.zeef.com
p13
aVhttp://bencane.com/2014/10/13/quick-and-practical-reference-for-tcpdump/
p14
aVhttp://ericsink.com/entries/fs_guilt.html
p15
aVhttp://crud-admin-generator.com/
p16
aVhttp://changelog.complete.org/archives/9237-first-impressions-of-systemd
p17
aVhttp://www.heavybit.com/library/developer-technical/video/2013-08-27-ilya-grigorik
p18
aVhttp://lwn.net/SubscriberLink/615220/45105d9668fe1eb1/
p19
aVhttp://blog.arkency.com/2014/09/unit-tests-vs-class-tests/
p20
a.